Certificate:
    Data:
        Version: 3 (0x2)
        Serial Number: 863 (0x35f)
        Signature Algorithm: md5WithRSAEncryption
        Issuer: C=EC, ST=CA, L=Quito, O=Kito/emailAddress=mail@host.domain
        Validity
            Not Before: Apr 29 11:01:39 2016 GMT
            Not After : Jan 24 11:01:39 2019 GMT
        Subject: C=RU, ST=W, O=Unknown, CN=avtox24.ru/emailAddress=myavtox24@gmail.com
        Subject Public Key Info:
            Public Key Algorithm: rsaEncryption
                Public-Key: (1024 bit)
                Modulus:
                    00:ca:91:34:f0:0c:e6:6c:74:82:ce:db:12:0b:69:
                    cc:29:36:af:3a:35:ae:37:cd:aa:42:92:bd:e4:16:
                    5c:4a:c8:2b:20:2b:76:f9:3a:23:9e:b1:9c:03:3d:
                    73:54:e7:78:3e:3a:33:fd:97:d8:cd:f6:84:09:82:
                    76:f1:8d:f1:54:14:20:3f:00:13:1a:3d:ba:bf:ca:
                    fb:73:0a:0a:cd:dc:61:1d:82:0a:06:d4:db:3a:c5:
                    0a:46:8a:a3:35:0a:e1:a6:4b:78:78:05:5d:39:4f:
                    cc:7e:94:87:2a:c2:dd:60:f3:40:1c:57:47:52:24:
                    27:e5:7c:a8:b0:82:a7:5c:23
                Exponent: 65537 (0x10001)
        X509v3 extensions:
            X509v3 Basic Constraints: 
                CA:FALSE
            Netscape Comment: 
                OpenSSL Generated Certificate
            X509v3 Subject Key Identifier: 
                1A:94:E8:AF:31:62:73:F1:36:89:A7:14:5D:2C:E5:7F:DA:0B:3B:58
            X509v3 Authority Key Identifier: 
                keyid:32:A4:BB:A2:68:DC:F9:AC:A7:DD:B5:50:11:E1:07:E7:AA:91:5B:1A
                DirName:/C=EC/ST=CA/L=Quito/O=Kito/emailAddress=mail@host.domain
                serial:89:61:A4:76:FB:A1:72:38

    Signature Algorithm: md5WithRSAEncryption
        06:a9:fc:26:c4:b8:eb:bc:8e:99:17:b2:97:4d:4d:d9:e3:83:
        0f:22:12:88:5c:d8:9f:3c:6b:95:08:4c:21:8e:08:59:bc:5e:
        5a:63:f4:27:f9:c2:5c:a0:a7:37:02:98:a3:97:a9:73:3f:7b:
        81:e9:47:e5:a0:9c:7e:3c:99:a3:47:d3:c2:22:d1:f6:07:75:
        9e:ed:ee:f7:7e:39:8b:00:10:99:62:a1:cb:de:25:f2:a2:a2:
        36:34:7e:6d:46:33:3f:be:46:d5:3e:5e:e3:2a:46:76:72:1d:
        cf:38:5c:e5:15:d6:d2:12:89:89:74:7e:1b:89:82:7d:01:0d:
        39:61
-----BEGIN CERTIFICATE-----
MIIDIDCCAomgAwIBAgICA18wDQYJKoZIhvcNAQEEBQAwWjELMAkGA1UEBhMCRUMx
CzAJBgNVBAgTAkNBMQ4wDAYDVQQHEwVRdWl0bzENMAsGA1UEChMES2l0bzEfMB0G
CSqGSIb3DQEJARYQbWFpbEBob3N0LmRvbWFpbjAeFw0xNjA0MjkxMTAxMzlaFw0x
OTAxMjQxMTAxMzlaMGQxCzAJBgNVBAYTAlJVMQowCAYDVQQIEwFXMRAwDgYDVQQK
EwdVbmtub3duMRMwEQYDVQQDEwphdnRveDI0LnJ1MSIwIAYJKoZIhvcNAQkBFhNt
eWF2dG94MjRAZ21haWwuY29tMIGfMA0GCSqGSIb3DQEBAQUAA4GNADCBiQKBgQDK
kTTwDOZsdILO2xILacwpNq86Na43zapCkr3kFlxKyCsgK3b5OiOesZwDPXNU53g+
OjP9l9jN9oQJgnbxjfFUFCA/ABMaPbq/yvtzCgrN3GEdggoG1Ns6xQpGiqM1CuGm
S3h4BV05T8x+lIcqwt1g80AcV0dSJCflfKiwgqdcIwIDAQABo4HqMIHnMAkGA1Ud
EwQCMAAwLAYJYIZIAYb4QgENBB8WHU9wZW5TU0wgR2VuZXJhdGVkIENlcnRpZmlj
YXRlMB0GA1UdDgQWBBQalOivMWJz8TaJpxRdLOV/2gs7WDCBjAYDVR0jBIGEMIGB
gBQypLuiaNz5rKfdtVAR4QfnqpFbGqFepFwwWjELMAkGA1UEBhMCRUMxCzAJBgNV
BAgTAkNBMQ4wDAYDVQQHEwVRdWl0bzENMAsGA1UEChMES2l0bzEfMB0GCSqGSIb3
DQEJARYQbWFpbEBob3N0LmRvbWFpboIJAIlhpHb7oXI4MA0GCSqGSIb3DQEBBAUA
A4GBAAap/CbEuOu8jpkXspdNTdnjgw8iEohc2J88a5UITCGOCFm8Xlpj9Cf5wlyg
pzcCmKOXqXM/e4HpR+WgnH48maNH08Ii0fYHdZ7t7vd+OYsAEJliocveJfKiojY0
fm1GMz++RtU+XuMqRnZyHc84XOUV1tISiYl0fhuJgn0BDTlh
-----END CERTIFICATE-----
